target datalayout = "e-m:e-p270:32:32-p271:32:32-p272:64:64-i64:64-i128:128-f80:128-n8:16:32:64-S128"
target triple = "x86_64-pc-linux-gnu"

%struct.tr2_tgt = type { ptr, ptr, ptr, ptr, ptr, ptr, ptr, ptr, ptr, ptr, ptr, ptr, ptr, ptr, ptr, ptr, ptr, ptr, ptr, ptr, ptr, ptr, ptr, ptr, ptr, ptr, ptr, ptr, ptr, ptr }

@trace2_enabled = internal global i32 0, align 4
@tr2_tgt_builtins = internal global [4 x ptr] [ptr @tr2_tgt_normal, ptr @tr2_tgt_perf, ptr @tr2_tgt_event, ptr null], align 16

; Function Attrs: nounwind uwtable
define internal void @free_redacted_argv(ptr noundef %0, ptr noundef %1) #0 {
  %3 = alloca ptr, align 8
  %4 = alloca ptr, align 8
  %5 = alloca i32, align 4
  store ptr %0, ptr %3, align 8, !tbaa !27
  store ptr %1, ptr %4, align 8, !tbaa !27
  call void @llvm.lifetime.start.p0(i64 4, ptr %5) #9
  %6 = load ptr, ptr %3, align 8, !tbaa !27
  %7 = load ptr, ptr %4, align 8, !tbaa !27
  %8 = icmp ne ptr %6, %7
  br i1 %8, label %9, label %41

9:                                                ; preds = %2
  store i32 0, ptr %5, align 4, !tbaa !9
  br label %10

10:                                               ; preds = %36, %9
  %11 = load ptr, ptr %4, align 8, !tbaa !27
  %12 = load i32, ptr %5, align 4, !tbaa !9
  %13 = sext i32 %12 to i64
  %14 = getelementptr inbounds ptr, ptr %11, i64 %13
  %15 = load ptr, ptr %14, align 8, !tbaa !4
  %16 = icmp ne ptr %15, null
  br i1 %16, label %17, label %39

17:                                               ; preds = %10
  %18 = load ptr, ptr %3, align 8, !tbaa !27
  %19 = load i32, ptr %5, align 4, !tbaa !9
  %20 = sext i32 %19 to i64
  %21 = getelementptr inbounds ptr, ptr %18, i64 %20
  %22 = load ptr, ptr %21, align 8, !tbaa !4
  %23 = load ptr, ptr %4, align 8, !tbaa !27
  %24 = load i32, ptr %5, align 4, !tbaa !9
  %25 = sext i32 %24 to i64
  %26 = getelementptr inbounds ptr, ptr %23, i64 %25
  %27 = load ptr, ptr %26, align 8, !tbaa !4
  %28 = icmp ne ptr %22, %27
  br i1 %28, label %29, label %35

29:                                               ; preds = %17
  %30 = load ptr, ptr %3, align 8, !tbaa !27
  %31 = load i32, ptr %5, align 4, !tbaa !9
  %32 = sext i32 %31 to i64
  %33 = getelementptr inbounds ptr, ptr %30, i64 %32
  %34 = load ptr, ptr %33, align 8, !tbaa !4
  call void @free(ptr noundef %34) #9
  br label %35

35:                                               ; preds = %29, %17
  br label %36

36:                                               ; preds = %35
  %37 = load i32, ptr %5, align 4, !tbaa !9
  %38 = add nsw i32 %37, 1
  store i32 %38, ptr %5, align 4, !tbaa !9
  br label %10, !llvm.loop !35

39:                                               ; preds = %10
  %40 = load ptr, ptr %3, align 8, !tbaa !27
  call void @free(ptr noundef %40) #9
  br label %41

41:                                               ; preds = %39, %2
  call void @llvm.lifetime.end.p0(i64 4, ptr %5) #9
  ret void
}

; Function Attrs: nounwind uwtable
define dso_local void @trace2_cmd_start_fl(ptr noundef %0, i32 noundef %1, ptr noundef %2) #0 {
  %4 = alloca ptr, align 8
  %5 = alloca i32, align 4
  %6 = alloca ptr, align 8
  %7 = alloca ptr, align 8
  %8 = alloca i32, align 4
  %9 = alloca i64, align 8
  %10 = alloca i64, align 8
  %11 = alloca ptr, align 8
  %12 = alloca i32, align 4
  store ptr %0, ptr %4, align 8, !tbaa !4
  store i32 %1, ptr %5, align 4, !tbaa !9
  store ptr %2, ptr %6, align 8, !tbaa !27
  call void @llvm.lifetime.start.p0(i64 8, ptr %7) #9
  call void @llvm.lifetime.start.p0(i64 4, ptr %8) #9
  call void @llvm.lifetime.start.p0(i64 8, ptr %9) #9
  call void @llvm.lifetime.start.p0(i64 8, ptr %10) #9
  call void @llvm.lifetime.start.p0(i64 8, ptr %11) #9
  %13 = load i32, ptr @trace2_enabled, align 4, !tbaa !9
  %14 = icmp ne i32 %13, 0
  br i1 %14, label %16, label %15

15:                                               ; preds = %3
  store i32 1, ptr %12, align 4
  br label %61

16:                                               ; preds = %3
  %17 = call i64 @getnanotime()
  %18 = udiv i64 %17, 1000
  store i64 %18, ptr %9, align 8, !tbaa !21
  %19 = load i64, ptr %9, align 8, !tbaa !21
  %20 = call i64 @tr2tls_absolute_elapsed(i64 noundef %19)
  store i64 %20, ptr %10, align 8, !tbaa !21
  %21 = load ptr, ptr %6, align 8, !tbaa !27
  %22 = call ptr @redact_argv(ptr noundef %21)
  store ptr %22, ptr %11, align 8, !tbaa !27
  store i32 0, ptr %8, align 4, !tbaa !9
  %23 = load i32, ptr %8, align 4, !tbaa !9
  %24 = sext i32 %23 to i64
  %25 = getelementptr inbounds [4 x ptr], ptr @tr2_tgt_builtins, i64 0, i64 %24
  %26 = load ptr, ptr %25, align 8, !tbaa !11
  store ptr %26, ptr %7, align 8, !tbaa !11
  br label %27

27:                                               ; preds = %51, %16
  %28 = load ptr, ptr %7, align 8, !tbaa !11
  %29 = icmp ne ptr %28, null
  br i1 %29, label %30, label %58

30:                                               ; preds = %27
  %31 = load ptr, ptr %7, align 8, !tbaa !11
  %32 = getelementptr inbounds nuw %struct.tr2_tgt, ptr %31, i32 0, i32 0
  %33 = load ptr, ptr %32, align 8, !tbaa !13
  %34 = call i32 @tr2_dst_trace_want(ptr noundef %33)
  %35 = icmp ne i32 %34, 0
  br i1 %35, label %36, label %50

36:                                               ; preds = %30
  %37 = load ptr, ptr %7, align 8, !tbaa !11
  %38 = getelementptr inbounds nuw %struct.tr2_tgt, ptr %37, i32 0, i32 4
  %39 = load ptr, ptr %38, align 8, !tbaa !29
  %40 = icmp ne ptr %39, null
  br i1 %40, label %41, label %49

41:                                               ; preds = %36
  %42 = load ptr, ptr %7, align 8, !tbaa !11
  %43 = getelementptr inbounds nuw %struct.tr2_tgt, ptr %42, i32 0, i32 4
  %44 = load ptr, ptr %43, align 8, !tbaa !29
  %45 = load ptr, ptr %4, align 8, !tbaa !4
  %46 = load i32, ptr %5, align 4, !tbaa !9
  %47 = load i64, ptr %10, align 8, !tbaa !21
  %48 = load ptr, ptr %11, align 8, !tbaa !27
  call void %44(ptr noundef %45, i32 noundef %46, i64 noundef %47, ptr noundef %48)
  br label %49

49:                                               ; preds = %41, %36
  br label %50

50:                                               ; preds = %49, %30
  br label %51

51:                                               ; preds = %50
  %52 = load i32, ptr %8, align 4, !tbaa !9
  %53 = add nsw i32 %52, 1
  store i32 %53, ptr %8, align 4, !tbaa !9
  %54 = load i32, ptr %8, align 4, !tbaa !9
  %55 = sext i32 %54 to i64
  %56 = getelementptr inbounds [4 x ptr], ptr @tr2_tgt_builtins, i64 0, i64 %55
  %57 = load ptr, ptr %56, align 8, !tbaa !11
  store ptr %57, ptr %7, align 8, !tbaa !11
  br label %27, !llvm.loop !30

58:                                               ; preds = %27
  %59 = load ptr, ptr %11, align 8, !tbaa !27
  %60 = load ptr, ptr %6, align 8, !tbaa !27
  call void @free_redacted_argv(ptr noundef %59, ptr noundef %60)
  store i32 0, ptr %12, align 4
  br label %61

61:                                               ; preds = %58, %15
  call void @llvm.lifetime.end.p0(i64 8, ptr %11) #9
  call void @llvm.lifetime.end.p0(i64 8, ptr %10) #9
  call void @llvm.lifetime.end.p0(i64 8, ptr %9) #9
  call void @llvm.lifetime.end.p0(i64 4, ptr %8) #9
  call void @llvm.lifetime.end.p0(i64 8, ptr %7) #9
  %62 = load i32, ptr %12, align 4
  switch i32 %62, label %64 [
    i32 0, label %63
    i32 1, label %63
  ]

63:                                               ; preds = %61, %61
  ret void

64:                                               ; preds = %61
  unreachable
}