; Function Attrs: nounwind uwtable
define dso_local void @trace2_cmd_start_fl(ptr noundef %0, i32 noundef %1, ptr noundef %2) local_unnamed_addr #0 {
  %.b = load i1, ptr @trace2_enabled, align 4
  br i1 %.b, label %4, label %free_redacted_argv.exit

4:                                                ; preds = %3
  %5 = tail call i64 @getnanotime() #11
  %6 = udiv i64 %5, 1000
  %7 = tail call i64 @tr2tls_absolute_elapsed(i64 noundef %6) #11
  %8 = tail call fastcc ptr @redact_argv(ptr noundef %2)
  br label %9

9:                                                ; preds = %4, %16
  %indvars.iv = phi i64 [ 0, %4 ], [ %indvars.iv.next, %16 ]
  %.019 = phi ptr [ @tr2_tgt_normal, %4 ], [ %18, %16 ]
  %10 = load ptr, ptr %.019, align 8, !tbaa !14
  %11 = tail call i32 @tr2_dst_trace_want(ptr noundef %10) #11
  %.not16 = icmp eq i32 %11, 0
  br i1 %.not16, label %16, label %12

12:                                               ; preds = %9
  %13 = getelementptr inbounds nuw i8, ptr %.019, i64 32
  %14 = load ptr, ptr %13, align 8, !tbaa !25
  %.not17 = icmp eq ptr %14, null
  br i1 %.not17, label %16, label %15

15:                                               ; preds = %12
  tail call void %14(ptr noundef %0, i32 noundef %1, i64 noundef %7, ptr noundef %8) #11
  br label %16

16:                                               ; preds = %9, %15, %12
  %indvars.iv.next = add nuw nsw i64 %indvars.iv, 1
  %17 = getelementptr inbounds nuw [4 x ptr], ptr @tr2_tgt_builtins, i64 0, i64 %indvars.iv.next
  %18 = load ptr, ptr %17, align 8, !tbaa !10
  %.not = icmp eq i64 %indvars.iv.next, 3
  br i1 %.not, label %19, label %9, !llvm.loop !26

19:                                               ; preds = %16
  %.not.i = icmp eq ptr %8, %2
  br i1 %.not.i, label %free_redacted_argv.exit, label %.preheader.i

.preheader.i:                                     ; preds = %19
  %20 = load ptr, ptr %2, align 8, !tbaa !27
  %.not1517.i = icmp eq ptr %20, null
  br i1 %.not1517.i, label %._crit_edge.i, label %.lr.ph.i

.lr.ph.i:                                         ; preds = %.preheader.i, %25
  %indvars.iv.i = phi i64 [ %indvars.iv.next.i, %25 ], [ 0, %.preheader.i ]
  %21 = phi ptr [ %27, %25 ], [ %20, %.preheader.i ]
  %22 = getelementptr inbounds nuw ptr, ptr %8, i64 %indvars.iv.i
  %23 = load ptr, ptr %22, align 8, !tbaa !27
  %.not16.i = icmp eq ptr %23, %21
  br i1 %.not16.i, label %25, label %24

24:                                               ; preds = %.lr.ph.i
  tail call void @free(ptr noundef %23) #11
  br label %25

25:                                               ; preds = %24, %.lr.ph.i
  %indvars.iv.next.i = add nuw nsw i64 %indvars.iv.i, 1
  %26 = getelementptr inbounds nuw ptr, ptr %2, i64 %indvars.iv.next.i
  %27 = load ptr, ptr %26, align 8, !tbaa !27
  %.not15.i = icmp eq ptr %27, null
  br i1 %.not15.i, label %._crit_edge.i, label %.lr.ph.i, !llvm.loop !29

._crit_edge.i:                                    ; preds = %25, %.preheader.i
  tail call void @free(ptr noundef %8) #11
  br label %free_redacted_argv.exit

free_redacted_argv.exit:                          ; preds = %._crit_edge.i, %19, %3
  ret void
}